; Function Attrs: mustprogress uwtable
define hidden noundef i32 @_ZN19OpenColorIO_v2_4dev11GammaOpData20ConvertStyleMonCurveENS_13NegativeStyleENS_18TransformDirectionE(i32 noundef %negStyle, i32 noundef %dir) local_unnamed_addr #3 align 2 personality ptr @__gxx_personality_v0 {
entry:
  %ss = alloca %"class.std::__cxx11::basic_stringstream", align 8
  %ref.tmp = alloca %"class.std::__cxx11::basic_string", align 8
  %ref.tmp9 = alloca %"class.std::allocator", align 1
  %ref.tmp19 = alloca %"class.std::__cxx11::basic_string", align 8
  %cmp = icmp eq i32 %dir, 0
  switch i32 %negStyle, label %sw.epilog [
    i32 3, label %sw.bb
    i32 1, label %sw.bb1
    i32 2, label %sw.bb4
    i32 0, label %sw.bb5
  ]

sw.bb:                                            ; preds = %entry
  %cond = select i1 %cmp, i32 6, i32 7
  br label %return

sw.bb1:                                           ; preds = %entry
  %cond3 = select i1 %cmp, i32 8, i32 9
  br label %return

sw.bb4:                                           ; preds = %entry
  %exception = tail call ptr @__cxa_allocate_exception(i64 16) #18
  invoke void @_ZN19OpenColorIO_v2_4dev9ExceptionC1EPKc(ptr noundef nonnull align 8 dereferenceable(16) %exception, ptr noundef nonnull @.str.6)
          to label %invoke.cont unwind label %lpad

invoke.cont:                                      ; preds = %sw.bb4
  tail call void @__cxa_throw(ptr nonnull %exception, ptr nonnull @_ZTIN19OpenColorIO_v2_4dev9ExceptionE, ptr nonnull @_ZN19OpenColorIO_v2_4dev9ExceptionD1Ev) #19
  unreachable

lpad:                                             ; preds = %sw.bb4
  %0 = landingpad { ptr, i32 }
          cleanup
  tail call void @__cxa_free_exception(ptr %exception) #18
  br label %eh.resume

sw.bb5:                                           ; preds = %entry
  %exception6 = tail call ptr @__cxa_allocate_exception(i64 16) #18
  invoke void @_ZN19OpenColorIO_v2_4dev9ExceptionC1EPKc(ptr noundef nonnull align 8 dereferenceable(16) %exception6, ptr noundef nonnull @.str.7)
          to label %invoke.cont8 unwind label %lpad7

invoke.cont8:                                     ; preds = %sw.bb5
  tail call void @__cxa_throw(ptr nonnull %exception6, ptr nonnull @_ZTIN19OpenColorIO_v2_4dev9ExceptionE, ptr nonnull @_ZN19OpenColorIO_v2_4dev9ExceptionD1Ev) #19
  unreachable

lpad7:                                            ; preds = %sw.bb5
  %1 = landingpad { ptr, i32 }
          cleanup
  tail call void @__cxa_free_exception(ptr %exception6) #18
  br label %eh.resume

sw.epilog:                                        ; preds = %entry
  call void @_ZNSaIcEC1Ev(ptr noundef nonnull align 1 dereferenceable(1) %ref.tmp9) #18
  invoke void @_ZNSt7__cxx1112basic_stringIcSt11char_traitsIcESaIcEEC1EPKcRKS3_(ptr noundef nonnull align 8 dereferenceable(32) %ref.tmp, ptr noundef nonnull @.str.5, ptr noundef nonnull align 1 dereferenceable(1) %ref.tmp9)
          to label %invoke.cont11 unwind label %lpad10

invoke.cont11:                                    ; preds = %sw.epilog
  invoke void @_ZNSt7__cxx1118basic_stringstreamIcSt11char_traitsIcESaIcEEC1ERKNS_12basic_stringIcS2_S3_EESt13_Ios_Openmode(ptr noundef nonnull align 8 dereferenceable(128) %ss, ptr noundef nonnull align 8 dereferenceable(32) %ref.tmp, i32 noundef 24)
          to label %invoke.cont14 unwind label %lpad12

invoke.cont14:                                    ; preds = %invoke.cont11
  call void @_ZNSt7__cxx1112basic_stringIcSt11char_traitsIcESaIcEED1Ev(ptr noundef nonnull align 8 dereferenceable(32) %ref.tmp) #18
  call void @_ZNSaIcED1Ev(ptr noundef nonnull align 1 dereferenceable(1) %ref.tmp9) #18
  %add.ptr = getelementptr inbounds i8, ptr %ss, i64 16
  %call17 = invoke noundef nonnull align 8 dereferenceable(8) ptr @_ZNSolsEi(ptr noundef nonnull align 8 dereferenceable(8) %add.ptr, i32 noundef %negStyle)
          to label %invoke.cont16 unwind label %lpad15

invoke.cont16:                                    ; preds = %invoke.cont14
  %exception18 = call ptr @__cxa_allocate_exception(i64 16) #18
  invoke void @_ZNKSt7__cxx1118basic_stringstreamIcSt11char_traitsIcESaIcEE3strEv(ptr nonnull sret(%"class.std::__cxx11::basic_string") align 8 %ref.tmp19, ptr noundef nonnull align 8 dereferenceable(128) %ss)
          to label %invoke.cont21 unwind label %ehcleanup26.thread

invoke.cont21:                                    ; preds = %invoke.cont16
  %call22 = call noundef ptr @_ZNKSt7__cxx1112basic_stringIcSt11char_traitsIcESaIcEE5c_strEv(ptr noundef nonnull align 8 dereferenceable(32) %ref.tmp19) #18
  invoke void @_ZN19OpenColorIO_v2_4dev9ExceptionC1EPKc(ptr noundef nonnull align 8 dereferenceable(16) %exception18, ptr noundef %call22)
          to label %invoke.cont24 unwind label %ehcleanup26.thread11

ehcleanup26.thread11:                             ; preds = %invoke.cont21
  %2 = landingpad { ptr, i32 }
          cleanup
  call void @_ZNSt7__cxx1112basic_stringIcSt11char_traitsIcESaIcEED1Ev(ptr noundef nonnull align 8 dereferenceable(32) %ref.tmp19) #18
  br label %cleanup.action

invoke.cont24:                                    ; preds = %invoke.cont21
  invoke void @__cxa_throw(ptr nonnull %exception18, ptr nonnull @_ZTIN19OpenColorIO_v2_4dev9ExceptionE, ptr nonnull @_ZN19OpenColorIO_v2_4dev9ExceptionD1Ev) #19
          to label %unreachable unwind label %ehcleanup26

lpad10:                                           ; preds = %sw.epilog
  %3 = landingpad { ptr, i32 }
          cleanup
  br label %ehcleanup

lpad12:                                           ; preds = %invoke.cont11
  %4 = landingpad { ptr, i32 }
          cleanup
  call void @_ZNSt7__cxx1112basic_stringIcSt11char_traitsIcESaIcEED1Ev(ptr noundef nonnull align 8 dereferenceable(32) %ref.tmp) #18
  br label %ehcleanup

ehcleanup:                                        ; preds = %lpad12, %lpad10
  %.pn = phi { ptr, i32 } [ %4, %lpad12 ], [ %3, %lpad10 ]
  call void @_ZNSaIcED1Ev(ptr noundef nonnull align 1 dereferenceable(1) %ref.tmp9) #18
  br label %eh.resume

lpad15:                                           ; preds = %invoke.cont14
  %5 = landingpad { ptr, i32 }
          cleanup
  br label %ehcleanup27

ehcleanup26.thread:                               ; preds = %invoke.cont16
  %6 = landingpad { ptr, i32 }
          cleanup
  br label %cleanup.action

ehcleanup26:                                      ; preds = %invoke.cont24
  %7 = landingpad { ptr, i32 }
          cleanup
  call void @_ZNSt7__cxx1112basic_stringIcSt11char_traitsIcESaIcEED1Ev(ptr noundef nonnull align 8 dereferenceable(32) %ref.tmp19) #18
  br label %ehcleanup27

cleanup.action:                                   ; preds = %ehcleanup26.thread11, %ehcleanup26.thread
  %.pn410 = phi { ptr, i32 } [ %6, %ehcleanup26.thread ], [ %2, %ehcleanup26.thread11 ]
  call void @__cxa_free_exception(ptr %exception18) #18
  br label %ehcleanup27

ehcleanup27:                                      ; preds = %ehcleanup26, %cleanup.action, %lpad15
  %.pn4.pn = phi { ptr, i32 } [ %.pn410, %cleanup.action ], [ %7, %ehcleanup26 ], [ %5, %lpad15 ]
  call void @_ZNSt7__cxx1118basic_stringstreamIcSt11char_traitsIcESaIcEED1Ev(ptr noundef nonnull align 8 dereferenceable(128) %ss) #18
  br label %eh.resume

return:                                           ; preds = %sw.bb1, %sw.bb
  %retval.0 = phi i32 [ %cond3, %sw.bb1 ], [ %cond, %sw.bb ]
  ret i32 %retval.0

eh.resume:                                        ; preds = %ehcleanup27, %ehcleanup, %lpad7, %lpad
  %.pn4.pn.pn = phi { ptr, i32 } [ %.pn4.pn, %ehcleanup27 ], [ %.pn, %ehcleanup ], [ %1, %lpad7 ], [ %0, %lpad ]
  resume { ptr, i32 } %.pn4.pn.pn

unreachable:                                      ; preds = %invoke.cont24
  unreachable
}